; Function Attrs: mustprogress uwtable
define internal fastcc noundef i32 @_ZN4cvc58internal6theoryL8theoryOfENS0_12NodeTemplateILb0EEE(ptr readonly captures(none) %.0.val) unnamed_addr #3 personality ptr @__gxx_personality_v0 {
  %1 = alloca %"class.cvc5::internal::TypeNode", align 8
  %2 = alloca %"class.cvc5::internal::NodeTemplate.0", align 8
  %3 = getelementptr inbounds nuw i8, ptr %.0.val, i64 8
  %4 = load i64, ptr %3, align 8
  %5 = trunc i64 %4 to i32
  %6 = and i32 %5, 1023
  %7 = icmp eq i32 %6, 5
  br i1 %7, label %8, label %44

8:                                                ; preds = %0
  call void @llvm.lifetime.start.p0(i64 8, ptr nonnull %2) #24
  tail call void @llvm.experimental.noalias.scope.decl(metadata !432)
  %9 = tail call noundef i32 @_ZN4cvc58internal4kind10metaKindOfENS1_6Kind_tE(i32 noundef 5), !noalias !432
  %10 = icmp eq i32 %9, 2
  %11 = getelementptr inbounds nuw i8, ptr %.0.val, i64 24
  %12 = zext i1 %10 to i64
  %13 = getelementptr inbounds nuw [0 x ptr], ptr %11, i64 0, i64 %12
  %14 = load ptr, ptr %13, align 8, !tbaa !10, !noalias !432
  store ptr %14, ptr %2, align 8, !tbaa !3, !alias.scope !432
  call void @_ZNK4cvc58internal12NodeTemplateILb0EE7getTypeEb(ptr dead_on_unwind nonnull writable sret(%"class.cvc5::internal::TypeNode") align 8 %1, ptr noundef nonnull align 8 dereferenceable(8) %2, i1 noundef zeroext false)
  %15 = load ptr, ptr %1, align 8, !tbaa !400
  %16 = getelementptr inbounds nuw i8, ptr %15, i64 8
  %17 = load i64, ptr %16, align 8
  %18 = trunc i64 %17 to i32
  %19 = and i32 %18, 1023
  %20 = icmp eq i32 %19, 13
  br i1 %20, label %21, label %25

21:                                               ; preds = %8
  %22 = invoke noundef nonnull align 4 dereferenceable(4) ptr @_ZNK4cvc58internal4expr9NodeValue8getConstINS0_12TypeConstantEEERKT_v(ptr noundef nonnull align 8 dereferenceable(24) %15)
          to label %.noexc unwind label %42

.noexc:                                           ; preds = %21
  %23 = load i32, ptr %22, align 4, !tbaa !401
  %24 = invoke noundef i32 @_ZN4cvc58internal6theory22typeConstantToTheoryIdENS0_12TypeConstantE(i32 noundef %23)
          to label %27 unwind label %42

25:                                               ; preds = %8
  %26 = invoke noundef i32 @_ZN4cvc58internal6theory14kindToTheoryIdENS0_4kind6Kind_tE(i32 noundef %19)
          to label %27 unwind label %42

27:                                               ; preds = %.noexc, %25
  %.0.i = phi i32 [ %24, %.noexc ], [ %26, %25 ]
  %28 = icmp eq i32 %.0.i, 0
  %..0.i = select i1 %28, i32 2, i32 %.0.i
  %29 = load ptr, ptr %1, align 8, !tbaa !400
  %30 = load i64, ptr %29, align 8
  %31 = and i64 %30, 1152920405095219200
  %.not.i.i = icmp eq i64 %31, 1152920405095219200
  br i1 %.not.i.i, label %_ZN4cvc58internal8TypeNodeD2Ev.exit, label %32, !prof !114

32:                                               ; preds = %27
  %33 = add i64 %30, 1152920405095219200
  %34 = and i64 %33, 1152920405095219200
  %35 = and i64 %30, -1152920405095219201
  %36 = or disjoint i64 %34, %35
  store i64 %36, ptr %29, align 8
  %37 = icmp eq i64 %34, 0
  br i1 %37, label %38, label %_ZN4cvc58internal8TypeNodeD2Ev.exit, !prof !114

38:                                               ; preds = %32
  invoke void @_ZN4cvc58internal4expr9NodeValue15markForDeletionEv(ptr noundef nonnull align 8 dereferenceable(24) %29)
          to label %_ZN4cvc58internal8TypeNodeD2Ev.exit unwind label %39

39:                                               ; preds = %38
  %40 = landingpad { ptr, i32 }
          catch ptr null
  %41 = extractvalue { ptr, i32 } %40, 0
  call void @__clang_call_terminate(ptr %41) #25
  unreachable

_ZN4cvc58internal8TypeNodeD2Ev.exit:              ; preds = %27, %32, %38
  call void @llvm.lifetime.end.p0(i64 8, ptr nonnull %2) #24
  br label %46

42:                                               ; preds = %25, %.noexc, %21
  %43 = landingpad { ptr, i32 }
          cleanup
  call void @_ZN4cvc58internal8TypeNodeD2Ev(ptr noundef nonnull align 8 dereferenceable(8) %1) #24
  call void @llvm.lifetime.end.p0(i64 8, ptr nonnull %2) #24
  resume { ptr, i32 } %43

44:                                               ; preds = %0
  %45 = tail call noundef i32 @_ZN4cvc58internal6theory14kindToTheoryIdENS0_4kind6Kind_tE(i32 noundef %6)
  br label %46

46:                                               ; preds = %44, %_ZN4cvc58internal8TypeNodeD2Ev.exit
  %.03 = phi i32 [ %..0.i, %_ZN4cvc58internal8TypeNodeD2Ev.exit ], [ %45, %44 ]
  ret i32 %.03
}